target datalayout = "e-m:e-p270:32:32-p271:32:32-p272:64:64-i64:64-i128:128-f80:128-n8:16:32:64-S128"
target triple = "x86_64-pc-linux-gnu"

%"struct.cv::GMatDesc" = type { i32, i32, %"class.cv::Size_", i8, %"class.std::vector.5" }
%"class.cv::Size_" = type { i32, i32 }
%"class.std::vector.5" = type { %"struct.std::_Vector_base.6" }
%"struct.std::_Vector_base.6" = type { %"struct.std::_Vector_base<int, std::allocator<int>>::_Vector_impl" }
%"struct.std::_Vector_base<int, std::allocator<int>>::_Vector_impl" = type { %"struct.std::_Vector_base<int, std::allocator<int>>::_Vector_impl_data" }
%"struct.std::_Vector_base<int, std::allocator<int>>::_Vector_impl_data" = type { ptr, ptr, ptr }
%"struct.cv::gapi::fluid::Buffer::Cache" = type { %"class.std::vector.10", %"struct.cv::GMatDesc" }
%"class.std::vector.10" = type { %"struct.std::_Vector_base.11" }
%"struct.std::_Vector_base.11" = type { %"struct.std::_Vector_base<unsigned char *, std::allocator<unsigned char *>>::_Vector_impl" }
%"struct.std::_Vector_base<unsigned char *, std::allocator<unsigned char *>>::_Vector_impl" = type { %"struct.std::_Vector_base<unsigned char *, std::allocator<unsigned char *>>::_Vector_impl_data" }
%"struct.std::_Vector_base<unsigned char *, std::allocator<unsigned char *>>::_Vector_impl_data" = type { ptr, ptr, ptr }
%"class.cv::Rect_" = type { i32, i32, i32, i32 }
%"class.cv::gapi::fluid::Buffer::Priv" = type <{ %"struct.cv::gapi::fluid::Buffer::Cache", i32, [4 x i8], %"struct.cv::GMatDesc", i8, [3 x i8], i32, %"class.std::vector.25", %"class.std::unique_ptr.30", i32, %"class.cv::Rect_", [4 x i8] }>
%"class.std::vector.25" = type { %"struct.std::_Vector_base.26" }
%"struct.std::_Vector_base.26" = type { %"struct.std::_Vector_base<const cv::gapi::fluid::View *, std::allocator<const cv::gapi::fluid::View *>>::_Vector_impl" }
%"struct.std::_Vector_base<const cv::gapi::fluid::View *, std::allocator<const cv::gapi::fluid::View *>>::_Vector_impl" = type { %"struct.std::_Vector_base<const cv::gapi::fluid::View *, std::allocator<const cv::gapi::fluid::View *>>::_Vector_impl_data" }
%"struct.std::_Vector_base<const cv::gapi::fluid::View *, std::allocator<const cv::gapi::fluid::View *>>::_Vector_impl_data" = type { ptr, ptr, ptr }
%"class.std::unique_ptr.30" = type { %"struct.std::__uniq_ptr_data.31" }
%"struct.std::__uniq_ptr_data.31" = type { %"class.std::__uniq_ptr_impl.32" }
%"class.std::__uniq_ptr_impl.32" = type { %"class.std::tuple.33" }
%"class.std::tuple.33" = type { %"struct.std::_Tuple_impl.34" }
%"struct.std::_Tuple_impl.34" = type { %"struct.std::_Head_base.37" }
%"struct.std::_Head_base.37" = type { ptr }
%"class.cv::gapi::fluid::View" = type { %"class.std::unique_ptr.38", ptr }
%"class.std::unique_ptr.38" = type { %"struct.std::__uniq_ptr_data.39" }
%"struct.std::__uniq_ptr_data.39" = type { %"class.std::__uniq_ptr_impl.40" }
%"class.std::__uniq_ptr_impl.40" = type { %"class.std::tuple.41" }
%"class.std::tuple.41" = type { %"struct.std::_Tuple_impl.42" }
%"struct.std::_Tuple_impl.42" = type { %"struct.std::_Head_base.45" }
%"struct.std::_Head_base.45" = type { ptr }
%"class.__gnu_cxx::__normal_iterator" = type { ptr }

; Function Attrs: mustprogress nounwind uwtable
define linkonce_odr hidden noundef nonnull align 8 dereferenceable(8) ptr @_ZNSt10_Head_baseILm0EPN2cv4gapi5fluid4View4PrivELb0EE7_M_headERKS6_(ptr noundef nonnull align 8 dereferenceable(8) %0) #8 comdat align 2 {
  %2 = alloca ptr, align 8
  store ptr %0, ptr %2, align 8, !tbaa !432
  %3 = load ptr, ptr %2, align 8, !tbaa !432
  %4 = getelementptr inbounds nuw %"struct.std::_Head_base.45", ptr %3, i32 0, i32 0
  ret ptr %4
}

; Function Attrs: mustprogress nounwind uwtable
define linkonce_odr hidden noundef nonnull align 8 dereferenceable(8) ptr @_ZNSt10_Head_baseILm0EPN2cv4gapi5fluid13BufferStorageELb0EE7_M_headERKS5_(ptr noundef nonnull align 8 dereferenceable(8) %0) #8 comdat align 2 {
  %2 = alloca ptr, align 8
  store ptr %0, ptr %2, align 8, !tbaa !283
  %3 = load ptr, ptr %2, align 8, !tbaa !283
  %4 = getelementptr inbounds nuw %"struct.std::_Head_base.37", ptr %3, i32 0, i32 0
  ret ptr %4
}

; Function Attrs: mustprogress nounwind uwtable
define linkonce_odr hidden noundef nonnull align 8 dereferenceable(8) ptr @_ZNSt11_Tuple_implILm0EJPN2cv4gapi5fluid4View4PrivESt14default_deleteIS4_EEE7_M_headERKS8_(ptr noundef nonnull align 8 dereferenceable(8) %0) #8 comdat align 2 {
  %2 = alloca ptr, align 8
  store ptr %0, ptr %2, align 8, !tbaa !427
  %3 = load ptr, ptr %2, align 8, !tbaa !427
  %4 = call noundef nonnull align 8 dereferenceable(8) ptr @_ZNSt10_Head_baseILm0EPN2cv4gapi5fluid4View4PrivELb0EE7_M_headERKS6_(ptr noundef nonnull align 8 dereferenceable(8) %3) #3
  ret ptr %4
}

; Function Attrs: mustprogress nounwind uwtable
define linkonce_odr hidden noundef nonnull align 8 dereferenceable(8) ptr @_ZNSt11_Tuple_implILm0EJPN2cv4gapi5fluid13BufferStorageESt14default_deleteIS3_EEE7_M_headERKS7_(ptr noundef nonnull align 8 dereferenceable(8) %0) #8 comdat align 2 {
  %2 = alloca ptr, align 8
  store ptr %0, ptr %2, align 8, !tbaa !281
  %3 = load ptr, ptr %2, align 8, !tbaa !281
  %4 = call noundef nonnull align 8 dereferenceable(8) ptr @_ZNSt10_Head_baseILm0EPN2cv4gapi5fluid13BufferStorageELb0EE7_M_headERKS5_(ptr noundef nonnull align 8 dereferenceable(8) %3) #3
  ret ptr %4
}

; Function Attrs: mustprogress nounwind uwtable
define linkonce_odr noundef nonnull align 8 dereferenceable(8) ptr @_ZSt12__get_helperILm0EPN2cv4gapi5fluid4View4PrivEJSt14default_deleteIS4_EEERKT0_RKSt11_Tuple_implIXT_EJS8_DpT1_EE(ptr noundef nonnull align 8 dereferenceable(8) %0) #8 comdat {
  %2 = alloca ptr, align 8
  store ptr %0, ptr %2, align 8, !tbaa !427
  %3 = load ptr, ptr %2, align 8, !tbaa !427
  %4 = call noundef nonnull align 8 dereferenceable(8) ptr @_ZNSt11_Tuple_implILm0EJPN2cv4gapi5fluid4View4PrivESt14default_deleteIS4_EEE7_M_headERKS8_(ptr noundef nonnull align 8 dereferenceable(8) %3) #3
  ret ptr %4
}

; Function Attrs: mustprogress nounwind uwtable
define linkonce_odr hidden noundef nonnull align 8 dereferenceable(8) ptr @_ZSt12__get_helperILm0EPN2cv4gapi5fluid13BufferStorageEJSt14default_deleteIS3_EEERKT0_RKSt11_Tuple_implIXT_EJS7_DpT1_EE(ptr noundef nonnull align 8 dereferenceable(8) %0) #8 comdat {
  %2 = alloca ptr, align 8
  store ptr %0, ptr %2, align 8, !tbaa !281
  %3 = load ptr, ptr %2, align 8, !tbaa !281
  %4 = call noundef nonnull align 8 dereferenceable(8) ptr @_ZNSt11_Tuple_implILm0EJPN2cv4gapi5fluid13BufferStorageESt14default_deleteIS3_EEE7_M_headERKS7_(ptr noundef nonnull align 8 dereferenceable(8) %3) #3
  ret ptr %4
}

; Function Attrs: mustprogress nounwind uwtable
define linkonce_odr noundef nonnull align 8 dereferenceable(8) ptr @_ZSt3getILm0EJPN2cv4gapi5fluid4View4PrivESt14default_deleteIS4_EEERKNSt13tuple_elementIXT_ESt5tupleIJDpT0_EEE4typeERKSC_(ptr noundef nonnull align 8 dereferenceable(8) %0) #8 comdat {
  %2 = alloca ptr, align 8
  store ptr %0, ptr %2, align 8, !tbaa !425
  %3 = load ptr, ptr %2, align 8, !tbaa !425
  %4 = call noundef nonnull align 8 dereferenceable(8) ptr @_ZSt12__get_helperILm0EPN2cv4gapi5fluid4View4PrivEJSt14default_deleteIS4_EEERKT0_RKSt11_Tuple_implIXT_EJS8_DpT1_EE(ptr noundef nonnull align 8 dereferenceable(8) %3) #3
  ret ptr %4
}

; Function Attrs: mustprogress nounwind uwtable
define linkonce_odr hidden noundef nonnull align 8 dereferenceable(8) ptr @_ZSt3getILm0EJPN2cv4gapi5fluid13BufferStorageESt14default_deleteIS3_EEERKNSt13tuple_elementIXT_ESt5tupleIJDpT0_EEE4typeERKSB_(ptr noundef nonnull align 8 dereferenceable(8) %0) #8 comdat {
  %2 = alloca ptr, align 8
  store ptr %0, ptr %2, align 8, !tbaa !279
  %3 = load ptr, ptr %2, align 8, !tbaa !279
  %4 = call noundef nonnull align 8 dereferenceable(8) ptr @_ZSt12__get_helperILm0EPN2cv4gapi5fluid13BufferStorageEJSt14default_deleteIS3_EEERKT0_RKSt11_Tuple_implIXT_EJS7_DpT1_EE(ptr noundef nonnull align 8 dereferenceable(8) %3) #3
  ret ptr %4
}

; Function Attrs: mustprogress nounwind uwtable
define linkonce_odr hidden noundef ptr @_ZNKSt15__uniq_ptr_implIN2cv4gapi5fluid4View4PrivESt14default_deleteIS4_EE6_M_ptrEv(ptr noundef nonnull align 8 dereferenceable(8) %0) #8 comdat align 2 {
  %2 = alloca ptr, align 8
  store ptr %0, ptr %2, align 8, !tbaa !423
  %3 = load ptr, ptr %2, align 8
  %4 = getelementptr inbounds nuw %"class.std::__uniq_ptr_impl.40", ptr %3, i32 0, i32 0
  %5 = call noundef nonnull align 8 dereferenceable(8) ptr @_ZSt3getILm0EJPN2cv4gapi5fluid4View4PrivESt14default_deleteIS4_EEERKNSt13tuple_elementIXT_ESt5tupleIJDpT0_EEE4typeERKSC_(ptr noundef nonnull align 8 dereferenceable(8) %4) #3
  %6 = load ptr, ptr %5, align 8, !tbaa !105
  ret ptr %6
}

; Function Attrs: mustprogress nounwind uwtable
define linkonce_odr hidden noundef ptr @_ZNKSt15__uniq_ptr_implIN2cv4gapi5fluid13BufferStorageESt14default_deleteIS3_EE6_M_ptrEv(ptr noundef nonnull align 8 dereferenceable(8) %0) #8 comdat align 2 {
  %2 = alloca ptr, align 8
  store ptr %0, ptr %2, align 8, !tbaa !277
  %3 = load ptr, ptr %2, align 8
  %4 = getelementptr inbounds nuw %"class.std::__uniq_ptr_impl.32", ptr %3, i32 0, i32 0
  %5 = call noundef nonnull align 8 dereferenceable(8) ptr @_ZSt3getILm0EJPN2cv4gapi5fluid13BufferStorageESt14default_deleteIS3_EEERKNSt13tuple_elementIXT_ESt5tupleIJDpT0_EEE4typeERKSB_(ptr noundef nonnull align 8 dereferenceable(8) %4) #3
  %6 = load ptr, ptr %5, align 8, !tbaa !48
  ret ptr %6
}

; Function Attrs: mustprogress nounwind uwtable
define linkonce_odr hidden noundef ptr @_ZNKSt10unique_ptrIN2cv4gapi5fluid4View4PrivESt14default_deleteIS4_EE3getEv(ptr noundef nonnull align 8 dereferenceable(8) %0) #8 comdat align 2 {
  %2 = alloca ptr, align 8
  store ptr %0, ptr %2, align 8, !tbaa !157
  %3 = load ptr, ptr %2, align 8
  %4 = getelementptr inbounds nuw %"class.std::unique_ptr.38", ptr %3, i32 0, i32 0
  %5 = call noundef ptr @_ZNKSt15__uniq_ptr_implIN2cv4gapi5fluid4View4PrivESt14default_deleteIS4_EE6_M_ptrEv(ptr noundef nonnull align 8 dereferenceable(8) %4) #3
  ret ptr %5
}

; Function Attrs: mustprogress nounwind uwtable
define linkonce_odr hidden noundef ptr @_ZNKSt10unique_ptrIN2cv4gapi5fluid13BufferStorageESt14default_deleteIS3_EE3getEv(ptr noundef nonnull align 8 dereferenceable(8) %0) #8 comdat align 2 {
  %2 = alloca ptr, align 8
  store ptr %0, ptr %2, align 8, !tbaa !173
  %3 = load ptr, ptr %2, align 8
  %4 = getelementptr inbounds nuw %"class.std::unique_ptr.30", ptr %3, i32 0, i32 0
  %5 = call noundef ptr @_ZNKSt15__uniq_ptr_implIN2cv4gapi5fluid13BufferStorageESt14default_deleteIS3_EE6_M_ptrEv(ptr noundef nonnull align 8 dereferenceable(8) %4) #3
  ret ptr %5
}

; Function Attrs: mustprogress nounwind uwtable
define linkonce_odr hidden noundef nonnull align 8 dereferenceable(108) ptr @_ZNKSt10unique_ptrIN2cv4gapi5fluid4View4PrivESt14default_deleteIS4_EEdeEv(ptr noundef nonnull align 8 dereferenceable(8) %0) #8 comdat align 2 {
  %2 = alloca ptr, align 8
  store ptr %0, ptr %2, align 8, !tbaa !157
  %3 = load ptr, ptr %2, align 8
  br label %4

4:                                                ; preds = %1
  br label %5

5:                                                ; preds = %4
  br label %6

6:                                                ; preds = %5
  %7 = call noundef ptr @_ZNKSt10unique_ptrIN2cv4gapi5fluid4View4PrivESt14default_deleteIS4_EE3getEv(ptr noundef nonnull align 8 dereferenceable(8) %3) #3
  ret ptr %7
}

; Function Attrs: mustprogress nounwind uwtable
define linkonce_odr hidden noundef nonnull align 8 dereferenceable(8) ptr @_ZNK9__gnu_cxx17__normal_iteratorIPKPKN2cv4gapi5fluid4ViewESt6vectorIS6_SaIS6_EEE4baseEv(ptr noundef nonnull align 8 dereferenceable(8) %0) #8 comdat align 2 {
  %2 = alloca ptr, align 8
  store ptr %0, ptr %2, align 8, !tbaa !190
  %3 = load ptr, ptr %2, align 8
  %4 = getelementptr inbounds nuw %"class.__gnu_cxx::__normal_iterator", ptr %3, i32 0, i32 0
  ret ptr %4
}

; Function Attrs: mustprogress nounwind uwtable
define linkonce_odr hidden void @_ZN9__gnu_cxx17__normal_iteratorIPKPKN2cv4gapi5fluid4ViewESt6vectorIS6_SaIS6_EEEC2ERKS8_(ptr noundef nonnull align 8 dereferenceable(8) %0, ptr noundef nonnull align 8 dereferenceable(8) %1) unnamed_addr #8 comdat align 2 {
  %3 = alloca ptr, align 8
  %4 = alloca ptr, align 8
  store ptr %0, ptr %3, align 8, !tbaa !190
  store ptr %1, ptr %4, align 8, !tbaa !442
  %5 = load ptr, ptr %3, align 8
  %6 = getelementptr inbounds nuw %"class.__gnu_cxx::__normal_iterator", ptr %5, i32 0, i32 0
  %7 = load ptr, ptr %4, align 8, !tbaa !442
  %8 = load ptr, ptr %7, align 8, !tbaa !189
  store ptr %8, ptr %6, align 8, !tbaa !192
  ret void
}

; Function Attrs: mustprogress nounwind uwtable
define linkonce_odr hidden noundef ptr @_ZNKSt10unique_ptrIN2cv4gapi5fluid13BufferStorageESt14default_deleteIS3_EEptEv(ptr noundef nonnull align 8 dereferenceable(8) %0) #8 comdat align 2 {
  %2 = alloca ptr, align 8
  store ptr %0, ptr %2, align 8, !tbaa !173
  %3 = load ptr, ptr %2, align 8
  %4 = call noundef ptr @_ZNKSt10unique_ptrIN2cv4gapi5fluid13BufferStorageESt14default_deleteIS3_EE3getEv(ptr noundef nonnull align 8 dereferenceable(8) %3) #3
  ret ptr %4
}

; Function Attrs: mustprogress nounwind uwtable
define linkonce_odr hidden noundef zeroext i1 @_ZNKSt10unique_ptrIN2cv4gapi5fluid13BufferStorageESt14default_deleteIS3_EEcvbEv(ptr noundef nonnull align 8 dereferenceable(8) %0) #8 comdat align 2 {
  %2 = alloca ptr, align 8
  store ptr %0, ptr %2, align 8, !tbaa !173
  %3 = load ptr, ptr %2, align 8
  %4 = call noundef ptr @_ZNKSt10unique_ptrIN2cv4gapi5fluid13BufferStorageESt14default_deleteIS3_EE3getEv(ptr noundef nonnull align 8 dereferenceable(8) %3) #3
  %5 = icmp eq ptr %4, null
  %6 = select i1 %5, i1 false, i1 true
  ret i1 %6
}

; Function Attrs: mustprogress nounwind uwtable
define linkonce_odr hidden noundef nonnull align 8 dereferenceable(8) ptr @_ZN9__gnu_cxx17__normal_iteratorIPKPKN2cv4gapi5fluid4ViewESt6vectorIS6_SaIS6_EEEppEv(ptr noundef nonnull align 8 dereferenceable(8) %0) #8 comdat align 2 {
  %2 = alloca ptr, align 8
  store ptr %0, ptr %2, align 8, !tbaa !190
  %3 = load ptr, ptr %2, align 8
  %4 = getelementptr inbounds nuw %"class.__gnu_cxx::__normal_iterator", ptr %3, i32 0, i32 0
  %5 = load ptr, ptr %4, align 8, !tbaa !192
  %6 = getelementptr inbounds nuw ptr, ptr %5, i32 1
  store ptr %6, ptr %4, align 8, !tbaa !192
  ret ptr %3
}

; Function Attrs: mustprogress nounwind uwtable
define noundef nonnull align 8 dereferenceable(108) ptr @_ZNK2cv4gapi5fluid4View4privEv(ptr noundef nonnull align 8 dereferenceable(16) %0) #8 align 2 {
  %2 = alloca ptr, align 8
  store ptr %0, ptr %2, align 8, !tbaa !155
  %3 = load ptr, ptr %2, align 8
  %4 = getelementptr inbounds nuw %"class.cv::gapi::fluid::View", ptr %3, i32 0, i32 0
  %5 = call noundef nonnull align 8 dereferenceable(108) ptr @_ZNKSt10unique_ptrIN2cv4gapi5fluid4View4PrivESt14default_deleteIS4_EEdeEv(ptr noundef nonnull align 8 dereferenceable(8) %4) #3
  ret ptr %5
}

; Function Attrs: mustprogress nounwind uwtable
define linkonce_odr hidden noundef nonnull align 8 dereferenceable(8) ptr @_ZNK9__gnu_cxx17__normal_iteratorIPKPKN2cv4gapi5fluid4ViewESt6vectorIS6_SaIS6_EEEdeEv(ptr noundef nonnull align 8 dereferenceable(8) %0) #8 comdat align 2 {
  %2 = alloca ptr, align 8
  store ptr %0, ptr %2, align 8, !tbaa !190
  %3 = load ptr, ptr %2, align 8
  %4 = getelementptr inbounds nuw %"class.__gnu_cxx::__normal_iterator", ptr %3, i32 0, i32 0
  %5 = load ptr, ptr %4, align 8, !tbaa !192
  ret ptr %5
}

; Function Attrs: inlinehint mustprogress nounwind uwtable
define linkonce_odr noundef zeroext i1 @_ZN9__gnu_cxxneIPKPKN2cv4gapi5fluid4ViewESt6vectorIS6_SaIS6_EEEEbRKNS_17__normal_iteratorIT_T0_EESH_(ptr noundef nonnull align 8 dereferenceable(8) %0, ptr noundef nonnull align 8 dereferenceable(8) %1) #5 comdat {
  %3 = alloca ptr, align 8
  %4 = alloca ptr, align 8
  store ptr %0, ptr %3, align 8, !tbaa !190
  store ptr %1, ptr %4, align 8, !tbaa !190
  %5 = load ptr, ptr %3, align 8, !tbaa !190
  %6 = call noundef nonnull align 8 dereferenceable(8) ptr @_ZNK9__gnu_cxx17__normal_iteratorIPKPKN2cv4gapi5fluid4ViewESt6vectorIS6_SaIS6_EEE4baseEv(ptr noundef nonnull align 8 dereferenceable(8) %5) #3
  %7 = load ptr, ptr %6, align 8, !tbaa !189
  %8 = load ptr, ptr %4, align 8, !tbaa !190
  %9 = call noundef nonnull align 8 dereferenceable(8) ptr @_ZNK9__gnu_cxx17__normal_iteratorIPKPKN2cv4gapi5fluid4ViewESt6vectorIS6_SaIS6_EEE4baseEv(ptr noundef nonnull align 8 dereferenceable(8) %8) #3
  %10 = load ptr, ptr %9, align 8, !tbaa !189
  %11 = icmp ne ptr %7, %10
  ret i1 %11
}

; Function Attrs: mustprogress nounwind uwtable
define linkonce_odr hidden ptr @_ZNKSt6vectorIPKN2cv4gapi5fluid4ViewESaIS5_EE3endEv(ptr noundef nonnull align 8 dereferenceable(24) %0) #8 comdat align 2 {
  %2 = alloca %"class.__gnu_cxx::__normal_iterator", align 8
  %3 = alloca ptr, align 8
  store ptr %0, ptr %3, align 8, !tbaa !171
  %4 = load ptr, ptr %3, align 8
  %5 = getelementptr inbounds nuw %"struct.std::_Vector_base.26", ptr %4, i32 0, i32 0
  %6 = getelementptr inbounds nuw %"struct.std::_Vector_base<const cv::gapi::fluid::View *, std::allocator<const cv::gapi::fluid::View *>>::_Vector_impl_data", ptr %5, i32 0, i32 1
  call void @_ZN9__gnu_cxx17__normal_iteratorIPKPKN2cv4gapi5fluid4ViewESt6vectorIS6_SaIS6_EEEC2ERKS8_(ptr noundef nonnull align 8 dereferenceable(8) %2, ptr noundef nonnull align 8 dereferenceable(8) %6) #3
  %7 = getelementptr inbounds nuw %"class.__gnu_cxx::__normal_iterator", ptr %2, i32 0, i32 0
  %8 = load ptr, ptr %7, align 8
  ret ptr %8
}

; Function Attrs: mustprogress nounwind uwtable
define linkonce_odr hidden ptr @_ZNKSt6vectorIPKN2cv4gapi5fluid4ViewESaIS5_EE5beginEv(ptr noundef nonnull align 8 dereferenceable(24) %0) #8 comdat align 2 {
  %2 = alloca %"class.__gnu_cxx::__normal_iterator", align 8
  %3 = alloca ptr, align 8
  store ptr %0, ptr %3, align 8, !tbaa !171
  %4 = load ptr, ptr %3, align 8
  %5 = getelementptr inbounds nuw %"struct.std::_Vector_base.26", ptr %4, i32 0, i32 0
  %6 = getelementptr inbounds nuw %"struct.std::_Vector_base<const cv::gapi::fluid::View *, std::allocator<const cv::gapi::fluid::View *>>::_Vector_impl_data", ptr %5, i32 0, i32 0
  call void @_ZN9__gnu_cxx17__normal_iteratorIPKPKN2cv4gapi5fluid4ViewESt6vectorIS6_SaIS6_EEEC2ERKS8_(ptr noundef nonnull align 8 dereferenceable(8) %2, ptr noundef nonnull align 8 dereferenceable(8) %6) #3
  %7 = getelementptr inbounds nuw %"class.__gnu_cxx::__normal_iterator", ptr %2, i32 0, i32 0
  %8 = load ptr, ptr %7, align 8
  ret ptr %8
}

; Function Attrs: mustprogress uwtable
define noundef i32 @_ZNK2cv4gapi5fluid6Buffer4Priv4sizeEv(ptr noundef nonnull align 8 dereferenceable(188) %0) #4 align 2 {
  %2 = alloca ptr, align 8
  %3 = alloca i64, align 8
  %4 = alloca ptr, align 8
  %5 = alloca %"class.__gnu_cxx::__normal_iterator", align 8
  %6 = alloca %"class.__gnu_cxx::__normal_iterator", align 8
  %7 = alloca ptr, align 8
  %8 = alloca i64, align 8
  store ptr %0, ptr %2, align 8, !tbaa !113
  %9 = load ptr, ptr %2, align 8
  call void @llvm.lifetime.start.p0(i64 8, ptr %3) #3
  store i64 0, ptr %3, align 8, !tbaa !46
  call void @llvm.lifetime.start.p0(i64 8, ptr %4) #3
  %10 = getelementptr inbounds nuw %"class.cv::gapi::fluid::Buffer::Priv", ptr %9, i32 0, i32 7
  store ptr %10, ptr %4, align 8, !tbaa !171
  call void @llvm.lifetime.start.p0(i64 8, ptr %5) #3
  %11 = load ptr, ptr %4, align 8, !tbaa !171
  %12 = call ptr @_ZNKSt6vectorIPKN2cv4gapi5fluid4ViewESaIS5_EE5beginEv(ptr noundef nonnull align 8 dereferenceable(24) %11) #3
  %13 = getelementptr inbounds nuw %"class.__gnu_cxx::__normal_iterator", ptr %5, i32 0, i32 0
  store ptr %12, ptr %13, align 8
  call void @llvm.lifetime.start.p0(i64 8, ptr %6) #3
  %14 = load ptr, ptr %4, align 8, !tbaa !171
  %15 = call ptr @_ZNKSt6vectorIPKN2cv4gapi5fluid4ViewESaIS5_EE3endEv(ptr noundef nonnull align 8 dereferenceable(24) %14) #3
  %16 = getelementptr inbounds nuw %"class.__gnu_cxx::__normal_iterator", ptr %6, i32 0, i32 0
  store ptr %15, ptr %16, align 8
  br label %17

17:                                               ; preds = %31, %1
  %18 = call noundef zeroext i1 @_ZN9__gnu_cxxneIPKPKN2cv4gapi5fluid4ViewESt6vectorIS6_SaIS6_EEEEbRKNS_17__normal_iteratorIT_T0_EESH_(ptr noundef nonnull align 8 dereferenceable(8) %5, ptr noundef nonnull align 8 dereferenceable(8) %6) #3
  br i1 %18, label %20, label %19

19:                                               ; preds = %17
  call void @llvm.lifetime.end.p0(i64 8, ptr %6) #3
  call void @llvm.lifetime.end.p0(i64 8, ptr %5) #3
  call void @llvm.lifetime.end.p0(i64 8, ptr %4) #3
  br label %33

20:                                               ; preds = %17
  call void @llvm.lifetime.start.p0(i64 8, ptr %7) #3
  %21 = call noundef nonnull align 8 dereferenceable(8) ptr @_ZNK9__gnu_cxx17__normal_iteratorIPKPKN2cv4gapi5fluid4ViewESt6vectorIS6_SaIS6_EEEdeEv(ptr noundef nonnull align 8 dereferenceable(8) %5) #3
  store ptr %21, ptr %7, align 8, !tbaa !189
  %22 = load ptr, ptr %7, align 8, !tbaa !189
  %23 = load ptr, ptr %22, align 8, !tbaa !155
  %24 = call noundef nonnull align 8 dereferenceable(108) ptr @_ZNK2cv4gapi5fluid4View4privEv(ptr noundef nonnull align 8 dereferenceable(16) %23)
  %25 = load ptr, ptr %24, align 8, !tbaa !21
  %26 = getelementptr inbounds ptr, ptr %25, i64 4
  %27 = load ptr, ptr %26, align 8
  %28 = call noundef i64 %27(ptr noundef nonnull align 8 dereferenceable(108) %24)
  %29 = load i64, ptr %3, align 8, !tbaa !46
  %30 = add i64 %29, %28
  store i64 %30, ptr %3, align 8, !tbaa !46
  call void @llvm.lifetime.end.p0(i64 8, ptr %7) #3
  br label %31

31:                                               ; preds = %20
  %32 = call noundef nonnull align 8 dereferenceable(8) ptr @_ZN9__gnu_cxx17__normal_iteratorIPKPKN2cv4gapi5fluid4ViewESt6vectorIS6_SaIS6_EEEppEv(ptr noundef nonnull align 8 dereferenceable(8) %5) #3
  br label %17

33:                                               ; preds = %19
  call void @llvm.lifetime.start.p0(i64 8, ptr %8) #3
  %34 = load i64, ptr %3, align 8, !tbaa !46
  store i64 %34, ptr %8, align 8, !tbaa !46
  %35 = getelementptr inbounds nuw %"class.cv::gapi::fluid::Buffer::Priv", ptr %9, i32 0, i32 8
  %36 = call noundef zeroext i1 @_ZNKSt10unique_ptrIN2cv4gapi5fluid13BufferStorageESt14default_deleteIS3_EEcvbEv(ptr noundef nonnull align 8 dereferenceable(8) %35) #3
  br i1 %36, label %37, label %46

37:                                               ; preds = %33
  %38 = getelementptr inbounds nuw %"class.cv::gapi::fluid::Buffer::Priv", ptr %9, i32 0, i32 8
  %39 = call noundef ptr @_ZNKSt10unique_ptrIN2cv4gapi5fluid13BufferStorageESt14default_deleteIS3_EEptEv(ptr noundef nonnull align 8 dereferenceable(8) %38) #3
  %40 = load ptr, ptr %39, align 8, !tbaa !21
  %41 = getelementptr inbounds ptr, ptr %40, i64 9
  %42 = load ptr, ptr %41, align 8
  %43 = call noundef i64 %42(ptr noundef nonnull align 8 dereferenceable(104) %39)
  %44 = load i64, ptr %8, align 8, !tbaa !46
  %45 = add i64 %44, %43
  store i64 %45, ptr %8, align 8, !tbaa !46
  br label %46

46:                                               ; preds = %37, %33
  %47 = load i64, ptr %8, align 8, !tbaa !46
  %48 = trunc i64 %47 to i32
  call void @llvm.lifetime.end.p0(i64 8, ptr %8) #3
  call void @llvm.lifetime.end.p0(i64 8, ptr %3) #3
  ret i32 %48
}