; Function Attrs: mustprogress uwtable
define noundef i32 @_ZNK2cv4gapi5fluid6Buffer4Priv4sizeEv(ptr noundef nonnull readonly align 8 captures(none) dereferenceable(188) %0) local_unnamed_addr #4 align 2 {
  %2 = getelementptr inbounds nuw i8, ptr %0, i64 136
  %3 = load ptr, ptr %2, align 8, !tbaa !160
  %4 = getelementptr inbounds nuw i8, ptr %0, i64 144
  %5 = load ptr, ptr %4, align 8, !tbaa !160
  %.not12 = icmp eq ptr %3, %5
  br i1 %.not12, label %._crit_edge, label %.lr.ph

._crit_edge:                                      ; preds = %.lr.ph, %1
  %.07.lcssa = phi i64 [ 0, %1 ], [ %14, %.lr.ph ]
  %6 = getelementptr inbounds nuw i8, ptr %0, i64 160
  %7 = load ptr, ptr %6, align 8, !tbaa !114
  %.not11 = icmp eq ptr %7, null
  br i1 %.not11, label %22, label %16

.lr.ph:                                           ; preds = %1, %.lr.ph
  %.0714 = phi i64 [ %14, %.lr.ph ], [ 0, %1 ]
  %.sroa.08.013 = phi ptr [ %15, %.lr.ph ], [ %3, %1 ]
  %8 = load ptr, ptr %.sroa.08.013, align 8, !tbaa !162
  %9 = load ptr, ptr %8, align 8, !tbaa !138
  %10 = load ptr, ptr %9, align 8, !tbaa !13
  %11 = getelementptr inbounds nuw i8, ptr %10, i64 32
  %12 = load ptr, ptr %11, align 8
  %13 = tail call noundef i64 %12(ptr noundef nonnull align 8 dereferenceable(108) %9)
  %14 = add i64 %13, %.0714
  %15 = getelementptr inbounds nuw i8, ptr %.sroa.08.013, i64 8
  %.not = icmp eq ptr %15, %5
  br i1 %.not, label %._crit_edge, label %.lr.ph

16:                                               ; preds = %._crit_edge
  %17 = load ptr, ptr %7, align 8, !tbaa !13
  %18 = getelementptr inbounds nuw i8, ptr %17, i64 72
  %19 = load ptr, ptr %18, align 8
  %20 = tail call noundef i64 %19(ptr noundef nonnull align 8 dereferenceable(104) %7)
  %21 = add i64 %20, %.07.lcssa
  br label %22

22:                                               ; preds = %16, %._crit_edge
  %.0 = phi i64 [ %21, %16 ], [ %.07.lcssa, %._crit_edge ]
  %23 = trunc i64 %.0 to i32
  ret i32 %23
}